target datalayout = "e-m:e-p270:32:32-p271:32:32-p272:64:64-i64:64-i128:128-f80:128-n8:16:32:64-S128"
target triple = "x86_64-pc-linux-gnu"

%struct.expert_field = type { i32, i32 }

@hf_gsm_bssmap_le_acq_ass = internal global i32 0, align 4
@hf_gsm_bssmap_le_ref_time = internal global i32 0, align 4
@hf_gsm_bssmap_le_ref_loc = internal global i32 0, align 4
@hf_gsm_bssmap_le_dgps_corr = internal global i32 0, align 4
@hf_gsm_bssmap_le_nav_mod = internal global i32 0, align 4
@hf_gsm_bssmap_le_iono_mod = internal global i32 0, align 4
@hf_gsm_bssmap_le_utc_mod = internal global i32 0, align 4
@hf_gsm_bssmap_le_almanac = internal global i32 0, align 4
@hf_gsm_bssmap_le_ephemeris_ext_chk = internal global i32 0, align 4
@hf_gsm_bssmap_le_ephemeris_ext = internal global i32 0, align 4
@hf_gsm_bssmap_le_real_time_int = internal global i32 0, align 4
@ei_gsm_a_bssmap_le_not_decoded_yet = internal global %struct.expert_field zeroinitializer, align 4
@.str.112 = private unnamed_addr constant [39 x i8] c"Satellite related data Not decoded yet\00", align 1

; Function Attrs: null_pointer_is_valid sspstrong uwtable
define internal zeroext i16 @de_bmaple_req_gps_ass_data(ptr noundef %0, ptr noundef %1, ptr noundef %2, i32 noundef %3, i32 noundef %4, ptr noundef %5, i32 noundef %6) #1 {
  %8 = alloca ptr, align 8
  %9 = alloca ptr, align 8
  %10 = alloca ptr, align 8
  %11 = alloca i32, align 4
  %12 = alloca i32, align 4
  %13 = alloca ptr, align 8
  %14 = alloca i32, align 4
  %15 = alloca i32, align 4
  store ptr %0, ptr %8, align 8
  store ptr %1, ptr %9, align 8
  store ptr %2, ptr %10, align 8
  store i32 %3, ptr %11, align 4
  store i32 %4, ptr %12, align 4
  store ptr %5, ptr %13, align 8
  store i32 %6, ptr %14, align 4
  call void @llvm.lifetime.start.p0(i64 4, ptr %15) #3
  %16 = load i32, ptr %11, align 4
  store i32 %16, ptr %15, align 4
  %17 = load ptr, ptr %9, align 8
  %18 = load i32, ptr @hf_gsm_bssmap_le_acq_ass, align 4
  %19 = load ptr, ptr %8, align 8
  %20 = load i32, ptr %15, align 4
  %21 = call ptr @proto_tree_add_item(ptr noundef %17, i32 noundef %18, ptr noundef %19, i32 noundef %20, i32 noundef 1, i32 noundef 0)
  %22 = load ptr, ptr %9, align 8
  %23 = load i32, ptr @hf_gsm_bssmap_le_ref_time, align 4
  %24 = load ptr, ptr %8, align 8
  %25 = load i32, ptr %15, align 4
  %26 = call ptr @proto_tree_add_item(ptr noundef %22, i32 noundef %23, ptr noundef %24, i32 noundef %25, i32 noundef 1, i32 noundef 0)
  %27 = load ptr, ptr %9, align 8
  %28 = load i32, ptr @hf_gsm_bssmap_le_ref_loc, align 4
  %29 = load ptr, ptr %8, align 8
  %30 = load i32, ptr %15, align 4
  %31 = call ptr @proto_tree_add_item(ptr noundef %27, i32 noundef %28, ptr noundef %29, i32 noundef %30, i32 noundef 1, i32 noundef 0)
  %32 = load ptr, ptr %9, align 8
  %33 = load i32, ptr @hf_gsm_bssmap_le_dgps_corr, align 4
  %34 = load ptr, ptr %8, align 8
  %35 = load i32, ptr %15, align 4
  %36 = call ptr @proto_tree_add_item(ptr noundef %32, i32 noundef %33, ptr noundef %34, i32 noundef %35, i32 noundef 1, i32 noundef 0)
  %37 = load ptr, ptr %9, align 8
  %38 = load i32, ptr @hf_gsm_bssmap_le_nav_mod, align 4
  %39 = load ptr, ptr %8, align 8
  %40 = load i32, ptr %15, align 4
  %41 = call ptr @proto_tree_add_item(ptr noundef %37, i32 noundef %38, ptr noundef %39, i32 noundef %40, i32 noundef 1, i32 noundef 0)
  %42 = load ptr, ptr %9, align 8
  %43 = load i32, ptr @hf_gsm_bssmap_le_iono_mod, align 4
  %44 = load ptr, ptr %8, align 8
  %45 = load i32, ptr %15, align 4
  %46 = call ptr @proto_tree_add_item(ptr noundef %42, i32 noundef %43, ptr noundef %44, i32 noundef %45, i32 noundef 1, i32 noundef 0)
  %47 = load ptr, ptr %9, align 8
  %48 = load i32, ptr @hf_gsm_bssmap_le_utc_mod, align 4
  %49 = load ptr, ptr %8, align 8
  %50 = load i32, ptr %15, align 4
  %51 = call ptr @proto_tree_add_item(ptr noundef %47, i32 noundef %48, ptr noundef %49, i32 noundef %50, i32 noundef 1, i32 noundef 0)
  %52 = load ptr, ptr %9, align 8
  %53 = load i32, ptr @hf_gsm_bssmap_le_almanac, align 4
  %54 = load ptr, ptr %8, align 8
  %55 = load i32, ptr %15, align 4
  %56 = call ptr @proto_tree_add_item(ptr noundef %52, i32 noundef %53, ptr noundef %54, i32 noundef %55, i32 noundef 1, i32 noundef 0)
  %57 = load i32, ptr %15, align 4
  %58 = add i32 %57, 1
  store i32 %58, ptr %15, align 4
  %59 = load ptr, ptr %9, align 8
  %60 = load i32, ptr @hf_gsm_bssmap_le_ephemeris_ext_chk, align 4
  %61 = load ptr, ptr %8, align 8
  %62 = load i32, ptr %15, align 4
  %63 = call ptr @proto_tree_add_item(ptr noundef %59, i32 noundef %60, ptr noundef %61, i32 noundef %62, i32 noundef 1, i32 noundef 0)
  %64 = load ptr, ptr %9, align 8
  %65 = load i32, ptr @hf_gsm_bssmap_le_ephemeris_ext, align 4
  %66 = load ptr, ptr %8, align 8
  %67 = load i32, ptr %15, align 4
  %68 = call ptr @proto_tree_add_item(ptr noundef %64, i32 noundef %65, ptr noundef %66, i32 noundef %67, i32 noundef 1, i32 noundef 0)
  %69 = load ptr, ptr %9, align 8
  %70 = load i32, ptr @hf_gsm_bssmap_le_real_time_int, align 4
  %71 = load ptr, ptr %8, align 8
  %72 = load i32, ptr %15, align 4
  %73 = call ptr @proto_tree_add_item(ptr noundef %69, i32 noundef %70, ptr noundef %71, i32 noundef %72, i32 noundef 1, i32 noundef 0)
  %74 = load i32, ptr %15, align 4
  %75 = add i32 %74, 1
  store i32 %75, ptr %15, align 4
  %76 = load ptr, ptr %9, align 8
  %77 = load ptr, ptr %10, align 8
  %78 = load ptr, ptr %8, align 8
  %79 = load i32, ptr %15, align 4
  %80 = load i32, ptr %12, align 4
  %81 = sub i32 %80, 2
  %82 = call ptr (ptr, ptr, ptr, ptr, i32, i32, ptr, ...) @proto_tree_add_expert_format(ptr noundef %76, ptr noundef %77, ptr noundef @ei_gsm_a_bssmap_le_not_decoded_yet, ptr noundef %78, i32 noundef %79, i32 noundef %81, ptr noundef @.str.112)
  %83 = load i32, ptr %12, align 4
  %84 = trunc i32 %83 to i16
  call void @llvm.lifetime.end.p0(i64 4, ptr %15) #3
  ret i16 %84
}